target datalayout = "e-m:e-p270:32:32-p271:32:32-p272:64:64-i64:64-i128:128-f80:128-n8:16:32:64-S128"
target triple = "x86_64-pc-linux-gnu"

%struct.SDL_HIDAPI_Device = type { ptr, ptr, ptr, ptr, i16, i16, i16, ptr, %struct.SDL_GUID, i32, i32, i32, i32, i16, i16, i8, i32, i32, i32, ptr, ptr, ptr, ptr, %struct.SDL_AtomicInt, i32, ptr, i8, i8, i8, ptr, i32, ptr, ptr }
%struct.SDL_GUID = type { [16 x i8] }
%struct.SDL_AtomicInt = type { i32 }
%struct.SDL_HIDAPI_DeviceDriver = type { ptr, i8, ptr, ptr, ptr, ptr, ptr, ptr, ptr, ptr, ptr, ptr, ptr, ptr, ptr, ptr, ptr, ptr, ptr }

; Function Attrs: nounwind uwtable
define internal zeroext i1 @HIDAPI_DriverCombined_SetJoystickSensorsEnabled(ptr noundef %0, ptr noundef %1, i1 noundef zeroext %2) #0 {
  %4 = alloca ptr, align 8
  %5 = alloca ptr, align 8
  %6 = alloca i8, align 1
  %7 = alloca i32, align 4
  %8 = alloca i8, align 1
  %9 = alloca ptr, align 8
  store ptr %0, ptr %4, align 8
  store ptr %1, ptr %5, align 8
  %10 = zext i1 %2 to i8
  store i8 %10, ptr %6, align 1
  call void @llvm.lifetime.start.p0(i64 4, ptr %7) #4
  call void @llvm.lifetime.start.p0(i64 1, ptr %8) #4
  store i8 0, ptr %8, align 1
  store i32 0, ptr %7, align 4
  br label %11

11:                                               ; preds = %37, %3
  %12 = load i32, ptr %7, align 4
  %13 = load ptr, ptr %4, align 8
  %14 = getelementptr inbounds nuw %struct.SDL_HIDAPI_Device, ptr %13, i32 0, i32 30
  %15 = load i32, ptr %14, align 8
  %16 = icmp slt i32 %12, %15
  br i1 %16, label %17, label %40

17:                                               ; preds = %11
  call void @llvm.lifetime.start.p0(i64 8, ptr %9) #4
  %18 = load ptr, ptr %4, align 8
  %19 = getelementptr inbounds nuw %struct.SDL_HIDAPI_Device, ptr %18, i32 0, i32 31
  %20 = load ptr, ptr %19, align 8
  %21 = load i32, ptr %7, align 4
  %22 = sext i32 %21 to i64
  %23 = getelementptr inbounds ptr, ptr %20, i64 %22
  %24 = load ptr, ptr %23, align 8
  store ptr %24, ptr %9, align 8
  %25 = load ptr, ptr %9, align 8
  %26 = getelementptr inbounds nuw %struct.SDL_HIDAPI_Device, ptr %25, i32 0, i32 19
  %27 = load ptr, ptr %26, align 8
  %28 = getelementptr inbounds nuw %struct.SDL_HIDAPI_DeviceDriver, ptr %27, i32 0, i32 16
  %29 = load ptr, ptr %28, align 8
  %30 = load ptr, ptr %9, align 8
  %31 = load ptr, ptr %5, align 8
  %32 = load i8, ptr %6, align 1, !range !8, !noundef !9
  %33 = trunc i8 %32 to i1
  %34 = call zeroext i1 %29(ptr noundef %30, ptr noundef %31, i1 noundef zeroext %33)
  br i1 %34, label %35, label %36

35:                                               ; preds = %17
  store i8 1, ptr %8, align 1
  br label %36

36:                                               ; preds = %35, %17
  call void @llvm.lifetime.end.p0(i64 8, ptr %9) #4
  br label %37

37:                                               ; preds = %36
  %38 = load i32, ptr %7, align 4
  %39 = add nsw i32 %38, 1
  store i32 %39, ptr %7, align 4
  br label %11, !llvm.loop !13

40:                                               ; preds = %11
  %41 = load i8, ptr %8, align 1, !range !8, !noundef !9
  %42 = trunc i8 %41 to i1
  call void @llvm.lifetime.end.p0(i64 1, ptr %8) #4
  call void @llvm.lifetime.end.p0(i64 4, ptr %7) #4
  ret i1 %42
}