; Function Attrs: nounwind uwtable
define internal zeroext i1 @HIDAPI_DriverCombined_SetJoystickSensorsEnabled(ptr noundef readonly captures(none) %0, ptr noundef %1, i1 noundef zeroext %2) #1 {
  %4 = getelementptr inbounds nuw i8, ptr %0, i64 168
  %5 = load i32, ptr %4, align 8
  %6 = icmp sgt i32 %5, 0
  br i1 %6, label %.lr.ph, label %._crit_edge

.lr.ph:                                           ; preds = %3
  %7 = getelementptr inbounds nuw i8, ptr %0, i64 176
  br label %8

8:                                                ; preds = %.lr.ph, %8
  %indvars.iv = phi i64 [ 0, %.lr.ph ], [ %indvars.iv.next, %8 ]
  %.0910 = phi i1 [ false, %.lr.ph ], [ %spec.select, %8 ]
  %9 = load ptr, ptr %7, align 8
  %10 = getelementptr inbounds nuw ptr, ptr %9, i64 %indvars.iv
  %11 = load ptr, ptr %10, align 8
  %12 = getelementptr inbounds nuw i8, ptr %11, i64 104
  %13 = load ptr, ptr %12, align 8
  %14 = getelementptr inbounds nuw i8, ptr %13, i64 128
  %15 = load ptr, ptr %14, align 8
  %16 = tail call zeroext i1 %15(ptr noundef %11, ptr noundef %1, i1 noundef zeroext %2) #4
  %spec.select = select i1 %16, i1 true, i1 %.0910
  %indvars.iv.next = add nuw nsw i64 %indvars.iv, 1
  %17 = load i32, ptr %4, align 8
  %18 = sext i32 %17 to i64
  %19 = icmp slt i64 %indvars.iv.next, %18
  br i1 %19, label %8, label %._crit_edge, !llvm.loop !10

._crit_edge:                                      ; preds = %8, %3
  %.09.lcssa = phi i1 [ false, %3 ], [ %spec.select, %8 ]
  ret i1 %.09.lcssa
}